target datalayout = "e-m:e-p270:32:32-p271:32:32-p272:64:64-i64:64-i128:128-f80:128-n8:16:32:64-S128"
target triple = "x86_64-pc-linux-gnu"

%struct.lua_State = type { i8, i8, i8, i8, i8, i8, i8, ptr, ptr, ptr, ptr, ptr, ptr, ptr, ptr, i32, i32, i16, i16, i32, ptr, ptr, ptr, ptr, ptr }
%struct.lua_TValue = type { %union.Value, [1 x i32], i32 }
%union.Value = type { ptr }
%struct.LuaTable = type { i8, i8, i8, i8, i8, i8, i8, i8, i32, %union.anon.2, ptr, ptr, ptr, ptr }
%union.anon.2 = type { i32 }

; Function Attrs: mustprogress uwtable
define internal noundef i32 @_ZL6tclearP9lua_State(ptr noundef %0) #0 {
  %2 = alloca ptr, align 8
  %3 = alloca ptr, align 8
  store ptr %0, ptr %2, align 8, !tbaa !4
  %4 = load ptr, ptr %2, align 8, !tbaa !4
  call void @_Z14luaL_checktypeP9lua_Stateii(ptr noundef %4, i32 noundef 1, i32 noundef 6)
  call void @llvm.lifetime.start.p0(i64 8, ptr %3) #7
  %5 = load ptr, ptr %2, align 8, !tbaa !4
  %6 = getelementptr inbounds nuw %struct.lua_State, ptr %5, i32 0, i32 8
  %7 = load ptr, ptr %6, align 8, !tbaa !9
  %8 = getelementptr inbounds nuw %struct.lua_TValue, ptr %7, i32 0, i32 0
  %9 = load ptr, ptr %8, align 8, !tbaa !21
  store ptr %9, ptr %3, align 8, !tbaa !22
  %10 = load ptr, ptr %3, align 8, !tbaa !22
  %11 = getelementptr inbounds nuw %struct.LuaTable, ptr %10, i32 0, i32 4
  %12 = load i8, ptr %11, align 4, !tbaa !53
  %13 = icmp ne i8 %12, 0
  br i1 %13, label %14, label %16

14:                                               ; preds = %1
  %15 = load ptr, ptr %2, align 8, !tbaa !4
  call void @_Z18luaG_readonlyerrorP9lua_State(ptr noundef %15) #8
  unreachable

16:                                               ; preds = %1
  %17 = load ptr, ptr %3, align 8, !tbaa !22
  call void @_Z10luaH_clearP8LuaTable(ptr noundef %17)
  call void @llvm.lifetime.end.p0(i64 8, ptr %3) #7
  ret i32 0
}