; Function Attrs: mustprogress uwtable
define internal noundef i32 @_ZL6tclearP9lua_State(ptr noundef %0) #0 {
  tail call void @_Z14luaL_checktypeP9lua_Stateii(ptr noundef %0, i32 noundef 1, i32 noundef 6)
  %2 = getelementptr inbounds nuw i8, ptr %0, i64 16
  %3 = load ptr, ptr %2, align 8, !tbaa !4
  %4 = load ptr, ptr %3, align 8, !tbaa !19
  %5 = getelementptr inbounds nuw i8, ptr %4, i64 4
  %6 = load i8, ptr %5, align 4, !tbaa !44
  %.not = icmp eq i8 %6, 0
  br i1 %.not, label %8, label %7

7:                                                ; preds = %1
  tail call void @_Z18luaG_readonlyerrorP9lua_State(ptr noundef nonnull %0) #6
  unreachable

8:                                                ; preds = %1
  tail call void @_Z10luaH_clearP8LuaTable(ptr noundef nonnull %4)
  ret i32 0
}